target datalayout = "e-m:e-p270:32:32-p271:32:32-p272:64:64-i64:64-i128:128-f80:128-n8:16:32:64-S128"
target triple = "x86_64-pc-linux-gnu"

%"class.clang::MultiplexExternalSemaSource" = type { %"class.clang::ExternalSemaSource", %"class.llvm::SmallVector" }
%"class.clang::ExternalSemaSource" = type { %"class.clang::ExternalASTSource" }
%"class.clang::ExternalASTSource" = type { ptr, %"class.llvm::RefCountedBase", i32 }
%"class.llvm::RefCountedBase" = type { i32 }
%"class.llvm::SmallVector" = type { %"class.llvm::SmallVectorImpl", %"struct.llvm::SmallVectorStorage" }
%"class.llvm::SmallVectorImpl" = type { %"class.llvm::SmallVectorTemplateBase" }
%"class.llvm::SmallVectorTemplateBase" = type { %"class.llvm::SmallVectorTemplateCommon" }
%"class.llvm::SmallVectorTemplateCommon" = type { %"class.llvm::SmallVectorBase" }
%"class.llvm::SmallVectorBase" = type { ptr, i32, i32 }
%"struct.llvm::SmallVectorStorage" = type { [16 x i8] }

; Function Attrs: mustprogress nounwind uwtable
define linkonce_odr hidden noundef ptr @_ZN4llvm25SmallVectorTemplateCommonIPN5clang18ExternalSemaSourceEvE3endEv(ptr noundef nonnull align 8 dereferenceable(16) %0) #0 comdat align 2 {
  %2 = alloca ptr, align 8
  store ptr %0, ptr %2, align 8
  %3 = load ptr, ptr %2, align 8
  %4 = call noundef ptr @_ZN4llvm25SmallVectorTemplateCommonIPN5clang18ExternalSemaSourceEvE5beginEv(ptr noundef nonnull align 8 dereferenceable(16) %3)
  %5 = call noundef i64 @_ZNK4llvm15SmallVectorBaseIjE4sizeEv(ptr noundef nonnull align 8 dereferenceable(16) %3)
  %6 = getelementptr inbounds ptr, ptr %4, i64 %5
  ret ptr %6
}

; Function Attrs: mustprogress nounwind uwtable
define linkonce_odr hidden noundef ptr @_ZN4llvm25SmallVectorTemplateCommonIPN5clang18ExternalSemaSourceEvE5beginEv(ptr noundef nonnull align 8 dereferenceable(16) %0) #0 comdat align 2 {
  %2 = alloca ptr, align 8
  store ptr %0, ptr %2, align 8
  %3 = load ptr, ptr %2, align 8
  %4 = getelementptr inbounds nuw %"class.llvm::SmallVectorBase", ptr %3, i32 0, i32 0
  %5 = load ptr, ptr %4, align 8
  ret ptr %5
}

; Function Attrs: mustprogress nounwind uwtable
define dso_local void @_ZN5clang27MultiplexExternalSemaSource23AssignedLambdaNumberingEPNS_13CXXRecordDeclE(ptr noundef nonnull align 8 dereferenceable(48) %0, ptr noundef %1) unnamed_addr #0 align 2 {
  %3 = alloca ptr, align 8
  %4 = alloca ptr, align 8
  %5 = alloca ptr, align 8
  %6 = alloca ptr, align 8
  %7 = alloca ptr, align 8
  %8 = alloca ptr, align 8
  store ptr %0, ptr %3, align 8
  store ptr %1, ptr %4, align 8
  %9 = load ptr, ptr %3, align 8
  %10 = getelementptr inbounds nuw %"class.clang::MultiplexExternalSemaSource", ptr %9, i32 0, i32 1
  store ptr %10, ptr %5, align 8
  %11 = load ptr, ptr %5, align 8
  %12 = call noundef ptr @_ZN4llvm25SmallVectorTemplateCommonIPN5clang18ExternalSemaSourceEvE5beginEv(ptr noundef nonnull align 8 dereferenceable(16) %11)
  store ptr %12, ptr %6, align 8
  %13 = load ptr, ptr %5, align 8
  %14 = call noundef ptr @_ZN4llvm25SmallVectorTemplateCommonIPN5clang18ExternalSemaSourceEvE3endEv(ptr noundef nonnull align 8 dereferenceable(16) %13)
  store ptr %14, ptr %7, align 8
  br label %15

15:                                               ; preds = %27, %2
  %16 = load ptr, ptr %6, align 8
  %17 = load ptr, ptr %7, align 8
  %18 = icmp ne ptr %16, %17
  br i1 %18, label %19, label %30

19:                                               ; preds = %15
  %20 = load ptr, ptr %6, align 8
  %21 = load ptr, ptr %20, align 8
  store ptr %21, ptr %8, align 8
  %22 = load ptr, ptr %8, align 8
  %23 = load ptr, ptr %4, align 8
  %24 = load ptr, ptr %22, align 8
  %25 = getelementptr inbounds ptr, ptr %24, i64 48
  %26 = load ptr, ptr %25, align 8
  call void %26(ptr noundef nonnull align 8 dereferenceable(16) %22, ptr noundef %23)
  br label %27

27:                                               ; preds = %19
  %28 = load ptr, ptr %6, align 8
  %29 = getelementptr inbounds ptr, ptr %28, i32 1
  store ptr %29, ptr %6, align 8
  br label %15

30:                                               ; preds = %15
  ret void
}